; Function Attrs: null_pointer_is_valid sspstrong uwtable
define internal i32 @dissect_h245_TerminalCapabilitySetReject(ptr noundef %0, i32 noundef %1, ptr noundef %2, ptr noundef %3, i32 noundef %4) #1 {
  %6 = load i32, ptr @ett_h245_TerminalCapabilitySetReject, align 4
  %7 = tail call i32 @dissect_per_sequence(ptr noundef %0, i32 noundef %1, ptr noundef %2, ptr noundef %3, i32 noundef %4, i32 noundef %6, ptr noundef nonnull @TerminalCapabilitySetReject_sequence)
  %8 = load ptr, ptr @h245_pi, align 8
  %.not = icmp eq ptr %8, null
  br i1 %.not, label %10, label %9

9:                                                ; preds = %5
  store i32 2, ptr %8, align 4
  br label %10

10:                                               ; preds = %9, %5
  ret i32 %7
}